target datalayout = "e-m:e-p270:32:32-p271:32:32-p272:64:64-i64:64-i128:128-f80:128-n8:16:32:64-S128"
target triple = "x86_64-pc-linux-gnu"

%struct.Ivy_Obj_t_ = type { i32, i32, i32, i32, ptr, ptr, ptr, ptr, ptr, ptr, ptr, ptr }
%struct.Ivy_Man_t_ = type { ptr, ptr, ptr, ptr, ptr, %struct.Ivy_Obj_t_, [8 x i32], i32, i32, ptr, i32, i32, i32, i32, ptr, i32, ptr, ptr, ptr, i32, ptr, ptr, ptr, i64, i64 }
%struct.Vec_Ptr_t_ = type { i32, i32, ptr }
%struct.Vec_Vec_t_ = type { i32, i32, ptr }

@.str = private unnamed_addr constant [41 x i8] c"Ivy_ManBalance(): The check has failed.\0A\00", align 1

; Function Attrs: inlinehint nounwind uwtable
define internal void @Vec_PtrFree(ptr noundef %0) #3 {
  %2 = alloca ptr, align 8
  store ptr %0, ptr %2, align 8, !tbaa !28
  %3 = load ptr, ptr %2, align 8, !tbaa !28
  %4 = getelementptr inbounds nuw %struct.Vec_Ptr_t_, ptr %3, i32 0, i32 2
  %5 = load ptr, ptr %4, align 8, !tbaa !31
  %6 = icmp ne ptr %5, null
  br i1 %6, label %7, label %13

7:                                                ; preds = %1
  %8 = load ptr, ptr %2, align 8, !tbaa !28
  %9 = getelementptr inbounds nuw %struct.Vec_Ptr_t_, ptr %8, i32 0, i32 2
  %10 = load ptr, ptr %9, align 8, !tbaa !31
  call void @free(ptr noundef %10) #7
  %11 = load ptr, ptr %2, align 8, !tbaa !28
  %12 = getelementptr inbounds nuw %struct.Vec_Ptr_t_, ptr %11, i32 0, i32 2
  store ptr null, ptr %12, align 8, !tbaa !31
  br label %14

13:                                               ; preds = %1
  br label %14

14:                                               ; preds = %13, %7
  %15 = load ptr, ptr %2, align 8, !tbaa !28
  %16 = icmp ne ptr %15, null
  br i1 %16, label %17, label %19

17:                                               ; preds = %14
  %18 = load ptr, ptr %2, align 8, !tbaa !28
  call void @free(ptr noundef %18) #7
  store ptr null, ptr %2, align 8, !tbaa !28
  br label %20

19:                                               ; preds = %14
  br label %20

20:                                               ; preds = %19, %17
  ret void
}

; Function Attrs: inlinehint nounwind uwtable
define internal ptr @Vec_VecEntry(ptr noundef %0, i32 noundef %1) #3 {
  %3 = alloca ptr, align 8
  %4 = alloca i32, align 4
  store ptr %0, ptr %3, align 8, !tbaa !22
  store i32 %1, ptr %4, align 4, !tbaa !8
  %5 = load ptr, ptr %3, align 8, !tbaa !22
  %6 = getelementptr inbounds nuw %struct.Vec_Vec_t_, ptr %5, i32 0, i32 2
  %7 = load ptr, ptr %6, align 8, !tbaa !36
  %8 = load i32, ptr %4, align 4, !tbaa !8
  %9 = sext i32 %8 to i64
  %10 = getelementptr inbounds ptr, ptr %7, i64 %9
  %11 = load ptr, ptr %10, align 8, !tbaa !32
  ret ptr %11
}

; Function Attrs: inlinehint nounwind uwtable
define internal i32 @Vec_VecSize(ptr noundef %0) #3 {
  %2 = alloca ptr, align 8
  store ptr %0, ptr %2, align 8, !tbaa !22
  %3 = load ptr, ptr %2, align 8, !tbaa !22
  %4 = getelementptr inbounds nuw %struct.Vec_Vec_t_, ptr %3, i32 0, i32 1
  %5 = load i32, ptr %4, align 4, !tbaa !33
  ret i32 %5
}

; Function Attrs: inlinehint nounwind uwtable
define internal ptr @Ivy_NotCond(ptr noundef %0, i32 noundef %1) #3 {
  %3 = alloca ptr, align 8
  %4 = alloca i32, align 4
  store ptr %0, ptr %3, align 8, !tbaa !19
  store i32 %1, ptr %4, align 4, !tbaa !8
  %5 = load ptr, ptr %3, align 8, !tbaa !19
  %6 = ptrtoint ptr %5 to i64
  %7 = load i32, ptr %4, align 4, !tbaa !8
  %8 = sext i32 %7 to i64
  %9 = xor i64 %6, %8
  %10 = inttoptr i64 %9 to ptr
  ret ptr %10
}

; Function Attrs: inlinehint nounwind uwtable
define internal i32 @Ivy_EdgeIsComplement(i32 noundef %0) #3 {
  %2 = alloca i32, align 4
  store i32 %0, ptr %2, align 4, !tbaa !8
  %3 = load i32, ptr %2, align 4, !tbaa !8
  %4 = and i32 %3, 1
  ret i32 %4
}

; Function Attrs: inlinehint nounwind uwtable
define internal ptr @Ivy_ManObj(ptr noundef %0, i32 noundef %1) #3 {
  %3 = alloca ptr, align 8
  %4 = alloca i32, align 4
  store ptr %0, ptr %3, align 8, !tbaa !3
  store i32 %1, ptr %4, align 4, !tbaa !8
  %5 = load ptr, ptr %3, align 8, !tbaa !3
  %6 = getelementptr inbounds nuw %struct.Ivy_Man_t_, ptr %5, i32 0, i32 3
  %7 = load ptr, ptr %6, align 8, !tbaa !51
  %8 = load i32, ptr %4, align 4, !tbaa !8
  %9 = call ptr @Vec_PtrEntry(ptr noundef %7, i32 noundef %8)
  ret ptr %9
}

; Function Attrs: inlinehint nounwind uwtable
define internal i32 @Ivy_EdgeId(i32 noundef %0) #3 {
  %2 = alloca i32, align 4
  store i32 %0, ptr %2, align 4, !tbaa !8
  %3 = load i32, ptr %2, align 4, !tbaa !8
  %4 = ashr i32 %3, 1
  ret i32 %4
}

; Function Attrs: inlinehint nounwind uwtable
define internal i32 @Ivy_EdgeCreate(i32 noundef %0, i32 noundef %1) #3 {
  %3 = alloca i32, align 4
  %4 = alloca i32, align 4
  store i32 %0, ptr %3, align 4, !tbaa !8
  store i32 %1, ptr %4, align 4, !tbaa !8
  %5 = load i32, ptr %3, align 4, !tbaa !8
  %6 = shl i32 %5, 1
  %7 = load i32, ptr %4, align 4, !tbaa !8
  %8 = or i32 %6, %7
  ret i32 %8
}

; Function Attrs: inlinehint nounwind uwtable
define internal void @Vec_VecFree(ptr noundef %0) #3 {
  %2 = alloca ptr, align 8
  %3 = alloca ptr, align 8
  %4 = alloca i32, align 4
  store ptr %0, ptr %2, align 8, !tbaa !22
  call void @llvm.lifetime.start.p0(i64 8, ptr %3) #7
  call void @llvm.lifetime.start.p0(i64 4, ptr %4) #7
  store i32 0, ptr %4, align 4, !tbaa !8
  br label %5

5:                                                ; preds = %22, %1
  %6 = load i32, ptr %4, align 4, !tbaa !8
  %7 = load ptr, ptr %2, align 8, !tbaa !22
  %8 = call i32 @Vec_VecSize(ptr noundef %7)
  %9 = icmp slt i32 %6, %8
  br i1 %9, label %10, label %14

10:                                               ; preds = %5
  %11 = load ptr, ptr %2, align 8, !tbaa !22
  %12 = load i32, ptr %4, align 4, !tbaa !8
  %13 = call ptr @Vec_VecEntry(ptr noundef %11, i32 noundef %12)
  store ptr %13, ptr %3, align 8, !tbaa !28
  br label %14

14:                                               ; preds = %10, %5
  %15 = phi i1 [ false, %5 ], [ true, %10 ]
  br i1 %15, label %16, label %25

16:                                               ; preds = %14
  %17 = load ptr, ptr %3, align 8, !tbaa !28
  %18 = icmp ne ptr %17, null
  br i1 %18, label %19, label %21

19:                                               ; preds = %16
  %20 = load ptr, ptr %3, align 8, !tbaa !28
  call void @Vec_PtrFree(ptr noundef %20)
  br label %21

21:                                               ; preds = %19, %16
  br label %22

22:                                               ; preds = %21
  %23 = load i32, ptr %4, align 4, !tbaa !8
  %24 = add nsw i32 %23, 1
  store i32 %24, ptr %4, align 4, !tbaa !8
  br label %5, !llvm.loop !39

25:                                               ; preds = %14
  %26 = load ptr, ptr %2, align 8, !tbaa !22
  call void @Vec_PtrFree(ptr noundef %26)
  call void @llvm.lifetime.end.p0(i64 4, ptr %4) #7
  call void @llvm.lifetime.end.p0(i64 8, ptr %3) #7
  ret void
}

; Function Attrs: inlinehint nounwind uwtable
define internal ptr @Ivy_EdgeToNode(ptr noundef %0, i32 noundef %1) #3 {
  %3 = alloca ptr, align 8
  %4 = alloca i32, align 4
  store ptr %0, ptr %3, align 8, !tbaa !3
  store i32 %1, ptr %4, align 4, !tbaa !8
  %5 = load ptr, ptr %3, align 8, !tbaa !3
  %6 = load i32, ptr %4, align 4, !tbaa !8
  %7 = call i32 @Ivy_EdgeId(i32 noundef %6)
  %8 = call ptr @Ivy_ManObj(ptr noundef %5, i32 noundef %7)
  %9 = load i32, ptr %4, align 4, !tbaa !8
  %10 = call i32 @Ivy_EdgeIsComplement(i32 noundef %9)
  %11 = call ptr @Ivy_NotCond(ptr noundef %8, i32 noundef %10)
  ret ptr %11
}

; Function Attrs: inlinehint nounwind uwtable
define internal i32 @Ivy_EdgeNotCond(i32 noundef %0, i32 noundef %1) #3 {
  %3 = alloca i32, align 4
  %4 = alloca i32, align 4
  store i32 %0, ptr %3, align 4, !tbaa !8
  store i32 %1, ptr %4, align 4, !tbaa !8
  %5 = load i32, ptr %3, align 4, !tbaa !8
  %6 = load i32, ptr %4, align 4, !tbaa !8
  %7 = xor i32 %5, %6
  ret i32 %7
}

; Function Attrs: inlinehint nounwind uwtable
define internal i32 @Ivy_IsComplement(ptr noundef %0) #3 {
  %2 = alloca ptr, align 8
  store ptr %0, ptr %2, align 8, !tbaa !19
  %3 = load ptr, ptr %2, align 8, !tbaa !19
  %4 = ptrtoint ptr %3 to i64
  %5 = and i64 %4, 1
  %6 = trunc i64 %5 to i32
  ret i32 %6
}

; Function Attrs: inlinehint nounwind uwtable
define internal ptr @Ivy_Regular(ptr noundef %0) #3 {
  %2 = alloca ptr, align 8
  store ptr %0, ptr %2, align 8, !tbaa !19
  %3 = load ptr, ptr %2, align 8, !tbaa !19
  %4 = ptrtoint ptr %3 to i64
  %5 = and i64 %4, -2
  %6 = inttoptr i64 %5 to ptr
  ret ptr %6
}

; Function Attrs: inlinehint nounwind uwtable
define internal ptr @Ivy_ObjChild0(ptr noundef %0) #3 {
  %2 = alloca ptr, align 8
  store ptr %0, ptr %2, align 8, !tbaa !19
  %3 = load ptr, ptr %2, align 8, !tbaa !19
  %4 = getelementptr inbounds nuw %struct.Ivy_Obj_t_, ptr %3, i32 0, i32 4
  %5 = load ptr, ptr %4, align 8, !tbaa !37
  ret ptr %5
}

; Function Attrs: inlinehint nounwind uwtable
define internal ptr @Vec_VecAlloc(i32 noundef %0) #3 {
  %2 = alloca i32, align 4
  %3 = alloca ptr, align 8
  store i32 %0, ptr %2, align 4, !tbaa !8
  call void @llvm.lifetime.start.p0(i64 8, ptr %3) #7
  %4 = call noalias ptr @malloc(i64 noundef 16) #8
  store ptr %4, ptr %3, align 8, !tbaa !22
  %5 = load i32, ptr %2, align 4, !tbaa !8
  %6 = icmp sgt i32 %5, 0
  br i1 %6, label %7, label %11

7:                                                ; preds = %1
  %8 = load i32, ptr %2, align 4, !tbaa !8
  %9 = icmp slt i32 %8, 8
  br i1 %9, label %10, label %11

10:                                               ; preds = %7
  store i32 8, ptr %2, align 4, !tbaa !8
  br label %11

11:                                               ; preds = %10, %7, %1
  %12 = load ptr, ptr %3, align 8, !tbaa !22
  %13 = getelementptr inbounds nuw %struct.Vec_Vec_t_, ptr %12, i32 0, i32 1
  store i32 0, ptr %13, align 4, !tbaa !33
  %14 = load i32, ptr %2, align 4, !tbaa !8
  %15 = load ptr, ptr %3, align 8, !tbaa !22
  %16 = getelementptr inbounds nuw %struct.Vec_Vec_t_, ptr %15, i32 0, i32 0
  store i32 %14, ptr %16, align 8, !tbaa !35
  %17 = load ptr, ptr %3, align 8, !tbaa !22
  %18 = getelementptr inbounds nuw %struct.Vec_Vec_t_, ptr %17, i32 0, i32 0
  %19 = load i32, ptr %18, align 8, !tbaa !35
  %20 = icmp ne i32 %19, 0
  br i1 %20, label %21, label %28

21:                                               ; preds = %11
  %22 = load ptr, ptr %3, align 8, !tbaa !22
  %23 = getelementptr inbounds nuw %struct.Vec_Vec_t_, ptr %22, i32 0, i32 0
  %24 = load i32, ptr %23, align 8, !tbaa !35
  %25 = sext i32 %24 to i64
  %26 = mul i64 8, %25
  %27 = call noalias ptr @malloc(i64 noundef %26) #8
  br label %29

28:                                               ; preds = %11
  br label %29

29:                                               ; preds = %28, %21
  %30 = phi ptr [ %27, %21 ], [ null, %28 ]
  %31 = load ptr, ptr %3, align 8, !tbaa !22
  %32 = getelementptr inbounds nuw %struct.Vec_Vec_t_, ptr %31, i32 0, i32 2
  store ptr %30, ptr %32, align 8, !tbaa !36
  %33 = load ptr, ptr %3, align 8, !tbaa !22
  call void @llvm.lifetime.end.p0(i64 8, ptr %3) #7
  ret ptr %33
}

; Function Attrs: inlinehint nounwind uwtable
define internal ptr @Vec_PtrEntry(ptr noundef %0, i32 noundef %1) #3 {
  %3 = alloca ptr, align 8
  %4 = alloca i32, align 4
  store ptr %0, ptr %3, align 8, !tbaa !28
  store i32 %1, ptr %4, align 4, !tbaa !8
  %5 = load ptr, ptr %3, align 8, !tbaa !28
  %6 = getelementptr inbounds nuw %struct.Vec_Ptr_t_, ptr %5, i32 0, i32 2
  %7 = load ptr, ptr %6, align 8, !tbaa !31
  %8 = load i32, ptr %4, align 4, !tbaa !8
  %9 = sext i32 %8 to i64
  %10 = getelementptr inbounds ptr, ptr %7, i64 %9
  %11 = load ptr, ptr %10, align 8, !tbaa !32
  ret ptr %11
}

; Function Attrs: inlinehint nounwind uwtable
define internal i32 @Vec_PtrSize(ptr noundef %0) #3 {
  %2 = alloca ptr, align 8
  store ptr %0, ptr %2, align 8, !tbaa !28
  %3 = load ptr, ptr %2, align 8, !tbaa !28
  %4 = getelementptr inbounds nuw %struct.Vec_Ptr_t_, ptr %3, i32 0, i32 1
  %5 = load i32, ptr %4, align 4, !tbaa !29
  ret i32 %5
}

; Function Attrs: inlinehint nounwind uwtable
define internal i32 @Ivy_EdgeFromNode(ptr noundef %0) #3 {
  %2 = alloca ptr, align 8
  store ptr %0, ptr %2, align 8, !tbaa !19
  %3 = load ptr, ptr %2, align 8, !tbaa !19
  %4 = call ptr @Ivy_Regular(ptr noundef %3)
  %5 = getelementptr inbounds nuw %struct.Ivy_Obj_t_, ptr %4, i32 0, i32 0
  %6 = load i32, ptr %5, align 8, !tbaa !26
  %7 = load ptr, ptr %2, align 8, !tbaa !19
  %8 = call i32 @Ivy_IsComplement(ptr noundef %7)
  %9 = call i32 @Ivy_EdgeCreate(i32 noundef %6, i32 noundef %8)
  ret i32 %9
}

; Function Attrs: inlinehint nounwind uwtable
define internal ptr @Ivy_ManConst1(ptr noundef %0) #3 {
  %2 = alloca ptr, align 8
  store ptr %0, ptr %2, align 8, !tbaa !3
  %3 = load ptr, ptr %2, align 8, !tbaa !3
  %4 = getelementptr inbounds nuw %struct.Ivy_Man_t_, ptr %3, i32 0, i32 4
  %5 = load ptr, ptr %4, align 8, !tbaa !27
  ret ptr %5
}

; Function Attrs: nounwind uwtable
define ptr @Ivy_ManBalance(ptr noundef %0, i32 noundef %1) #0 {
  %3 = alloca ptr, align 8
  %4 = alloca i32, align 4
  %5 = alloca ptr, align 8
  %6 = alloca ptr, align 8
  %7 = alloca ptr, align 8
  %8 = alloca ptr, align 8
  %9 = alloca i32, align 4
  %10 = alloca i32, align 4
  store ptr %0, ptr %3, align 8, !tbaa !3
  store i32 %1, ptr %4, align 4, !tbaa !8
  call void @llvm.lifetime.start.p0(i64 8, ptr %5) #7
  call void @llvm.lifetime.start.p0(i64 8, ptr %6) #7
  call void @llvm.lifetime.start.p0(i64 8, ptr %7) #7
  call void @llvm.lifetime.start.p0(i64 8, ptr %8) #7
  call void @llvm.lifetime.start.p0(i64 4, ptr %9) #7
  call void @llvm.lifetime.start.p0(i64 4, ptr %10) #7
  %11 = load ptr, ptr %3, align 8, !tbaa !3
  call void @Ivy_ManCleanTravId(ptr noundef %11)
  %12 = call ptr (...) @Ivy_ManStart()
  store ptr %12, ptr %5, align 8, !tbaa !3
  %13 = load ptr, ptr %5, align 8, !tbaa !3
  %14 = call ptr @Ivy_ManConst1(ptr noundef %13)
  %15 = call i32 @Ivy_EdgeFromNode(ptr noundef %14)
  %16 = load ptr, ptr %3, align 8, !tbaa !3
  %17 = call ptr @Ivy_ManConst1(ptr noundef %16)
  %18 = getelementptr inbounds nuw %struct.Ivy_Obj_t_, ptr %17, i32 0, i32 1
  store i32 %15, ptr %18, align 4, !tbaa !10
  store i32 0, ptr %9, align 4, !tbaa !8
  br label %19

19:                                               ; preds = %40, %2
  %20 = load i32, ptr %9, align 4, !tbaa !8
  %21 = load ptr, ptr %3, align 8, !tbaa !3
  %22 = getelementptr inbounds nuw %struct.Ivy_Man_t_, ptr %21, i32 0, i32 0
  %23 = load ptr, ptr %22, align 8, !tbaa !13
  %24 = call i32 @Vec_PtrSize(ptr noundef %23)
  %25 = icmp slt i32 %20, %24
  br i1 %25, label %26, label %32

26:                                               ; preds = %19
  %27 = load ptr, ptr %3, align 8, !tbaa !3
  %28 = getelementptr inbounds nuw %struct.Ivy_Man_t_, ptr %27, i32 0, i32 0
  %29 = load ptr, ptr %28, align 8, !tbaa !13
  %30 = load i32, ptr %9, align 4, !tbaa !8
  %31 = call ptr @Vec_PtrEntry(ptr noundef %29, i32 noundef %30)
  store ptr %31, ptr %6, align 8, !tbaa !19
  br label %32

32:                                               ; preds = %26, %19
  %33 = phi i1 [ false, %19 ], [ true, %26 ]
  br i1 %33, label %34, label %43

34:                                               ; preds = %32
  %35 = load ptr, ptr %5, align 8, !tbaa !3
  %36 = call ptr @Ivy_ObjCreatePi(ptr noundef %35)
  %37 = call i32 @Ivy_EdgeFromNode(ptr noundef %36)
  %38 = load ptr, ptr %6, align 8, !tbaa !19
  %39 = getelementptr inbounds nuw %struct.Ivy_Obj_t_, ptr %38, i32 0, i32 1
  store i32 %37, ptr %39, align 4, !tbaa !10
  br label %40

40:                                               ; preds = %34
  %41 = load i32, ptr %9, align 4, !tbaa !8
  %42 = add nsw i32 %41, 1
  store i32 %42, ptr %9, align 4, !tbaa !8
  br label %19, !llvm.loop !20

43:                                               ; preds = %32
  %44 = call ptr @Vec_VecAlloc(i32 noundef 50)
  store ptr %44, ptr %8, align 8, !tbaa !22
  store i32 0, ptr %9, align 4, !tbaa !8
  br label %45

45:                                               ; preds = %79, %43
  %46 = load i32, ptr %9, align 4, !tbaa !8
  %47 = load ptr, ptr %3, align 8, !tbaa !3
  %48 = getelementptr inbounds nuw %struct.Ivy_Man_t_, ptr %47, i32 0, i32 1
  %49 = load ptr, ptr %48, align 8, !tbaa !24
  %50 = call i32 @Vec_PtrSize(ptr noundef %49)
  %51 = icmp slt i32 %46, %50
  br i1 %51, label %52, label %58

52:                                               ; preds = %45
  %53 = load ptr, ptr %3, align 8, !tbaa !3
  %54 = getelementptr inbounds nuw %struct.Ivy_Man_t_, ptr %53, i32 0, i32 1
  %55 = load ptr, ptr %54, align 8, !tbaa !24
  %56 = load i32, ptr %9, align 4, !tbaa !8
  %57 = call ptr @Vec_PtrEntry(ptr noundef %55, i32 noundef %56)
  store ptr %57, ptr %6, align 8, !tbaa !19
  br label %58

58:                                               ; preds = %52, %45
  %59 = phi i1 [ false, %45 ], [ true, %52 ]
  br i1 %59, label %60, label %82

60:                                               ; preds = %58
  %61 = load ptr, ptr %6, align 8, !tbaa !19
  %62 = call ptr @Ivy_ObjChild0(ptr noundef %61)
  %63 = call ptr @Ivy_ObjReal(ptr noundef %62)
  store ptr %63, ptr %7, align 8, !tbaa !19
  %64 = load ptr, ptr %5, align 8, !tbaa !3
  %65 = load ptr, ptr %7, align 8, !tbaa !19
  %66 = call ptr @Ivy_Regular(ptr noundef %65)
  %67 = load ptr, ptr %8, align 8, !tbaa !22
  %68 = load i32, ptr %4, align 4, !tbaa !8
  %69 = call i32 @Ivy_NodeBalance_rec(ptr noundef %64, ptr noundef %66, ptr noundef %67, i32 noundef 0, i32 noundef %68)
  store i32 %69, ptr %10, align 4, !tbaa !8
  %70 = load i32, ptr %10, align 4, !tbaa !8
  %71 = load ptr, ptr %7, align 8, !tbaa !19
  %72 = call i32 @Ivy_IsComplement(ptr noundef %71)
  %73 = call i32 @Ivy_EdgeNotCond(i32 noundef %70, i32 noundef %72)
  store i32 %73, ptr %10, align 4, !tbaa !8
  %74 = load ptr, ptr %5, align 8, !tbaa !3
  %75 = load ptr, ptr %5, align 8, !tbaa !3
  %76 = load i32, ptr %10, align 4, !tbaa !8
  %77 = call ptr @Ivy_EdgeToNode(ptr noundef %75, i32 noundef %76)
  %78 = call ptr @Ivy_ObjCreatePo(ptr noundef %74, ptr noundef %77)
  br label %79

79:                                               ; preds = %60
  %80 = load i32, ptr %9, align 4, !tbaa !8
  %81 = add nsw i32 %80, 1
  store i32 %81, ptr %9, align 4, !tbaa !8
  br label %45, !llvm.loop !25

82:                                               ; preds = %58
  %83 = load ptr, ptr %8, align 8, !tbaa !22
  call void @Vec_VecFree(ptr noundef %83)
  %84 = load ptr, ptr %5, align 8, !tbaa !3
  %85 = call i32 @Ivy_ManCleanup(ptr noundef %84)
  store i32 %85, ptr %9, align 4, !tbaa !8
  %86 = icmp ne i32 %85, 0
  br i1 %86, label %87, label %88

87:                                               ; preds = %82
  br label %88

88:                                               ; preds = %87, %82
  %89 = load ptr, ptr %5, align 8, !tbaa !3
  %90 = call i32 @Ivy_ManCheck(ptr noundef %89)
  %91 = icmp ne i32 %90, 0
  br i1 %91, label %94, label %92

92:                                               ; preds = %88
  %93 = call i32 (ptr, ...) @printf(ptr noundef @.str)
  br label %94

94:                                               ; preds = %92, %88
  %95 = load ptr, ptr %5, align 8, !tbaa !3
  call void @llvm.lifetime.end.p0(i64 4, ptr %10) #7
  call void @llvm.lifetime.end.p0(i64 4, ptr %9) #7
  call void @llvm.lifetime.end.p0(i64 8, ptr %8) #7
  call void @llvm.lifetime.end.p0(i64 8, ptr %7) #7
  call void @llvm.lifetime.end.p0(i64 8, ptr %6) #7
  call void @llvm.lifetime.end.p0(i64 8, ptr %5) #7
  ret ptr %95
}