; Function Attrs: nounwind uwtable
define ptr @Ivy_ManBalance(ptr noundef %0, i32 noundef %1) local_unnamed_addr #0 {
  tail call void @Ivy_ManCleanTravId(ptr noundef %0) #9
  %3 = tail call ptr (...) @Ivy_ManStart() #9
  %4 = getelementptr i8, ptr %3, i64 32
  %.val = load ptr, ptr %4, align 8, !tbaa !3
  %5 = ptrtoint ptr %.val to i64
  %6 = and i64 %5, -2
  %7 = inttoptr i64 %6 to ptr
  %8 = load i32, ptr %7, align 8, !tbaa !16
  %9 = trunc i64 %5 to i32
  %10 = and i32 %9, 1
  %11 = shl i32 %8, 1
  %12 = or disjoint i32 %10, %11
  %13 = getelementptr i8, ptr %0, i64 32
  %.val30 = load ptr, ptr %13, align 8, !tbaa !3
  %14 = getelementptr inbounds nuw i8, ptr %.val30, i64 4
  store i32 %12, ptr %14, align 4, !tbaa !17
  %15 = load ptr, ptr %0, align 8, !tbaa !18
  %16 = getelementptr i8, ptr %15, i64 4
  %.val3137 = load i32, ptr %16, align 4, !tbaa !19
  %17 = icmp sgt i32 %.val3137, 0
  br i1 %17, label %.lr.ph, label %.critedge

.lr.ph:                                           ; preds = %2, %.lr.ph
  %indvars.iv = phi i64 [ %indvars.iv.next, %.lr.ph ], [ 0, %2 ]
  %18 = phi ptr [ %32, %.lr.ph ], [ %15, %2 ]
  %19 = getelementptr i8, ptr %18, i64 8
  %.val33 = load ptr, ptr %19, align 8, !tbaa !21
  %20 = getelementptr inbounds nuw ptr, ptr %.val33, i64 %indvars.iv
  %21 = load ptr, ptr %20, align 8, !tbaa !22
  %22 = tail call ptr @Ivy_ObjCreatePi(ptr noundef %3) #9
  %23 = ptrtoint ptr %22 to i64
  %24 = and i64 %23, -2
  %25 = inttoptr i64 %24 to ptr
  %26 = load i32, ptr %25, align 8, !tbaa !16
  %27 = trunc i64 %23 to i32
  %28 = and i32 %27, 1
  %29 = shl i32 %26, 1
  %30 = or disjoint i32 %28, %29
  %31 = getelementptr inbounds nuw i8, ptr %21, i64 4
  store i32 %30, ptr %31, align 4, !tbaa !17
  %indvars.iv.next = add nuw nsw i64 %indvars.iv, 1
  %32 = load ptr, ptr %0, align 8, !tbaa !18
  %33 = getelementptr i8, ptr %32, i64 4
  %.val31 = load i32, ptr %33, align 4, !tbaa !19
  %34 = sext i32 %.val31 to i64
  %35 = icmp slt i64 %indvars.iv.next, %34
  br i1 %35, label %.lr.ph, label %.critedge, !llvm.loop !23

.critedge:                                        ; preds = %.lr.ph, %2
  %36 = tail call noalias dereferenceable_or_null(16) ptr @malloc(i64 noundef 16) #10
  %37 = getelementptr inbounds nuw i8, ptr %36, i64 4
  store i32 0, ptr %37, align 4, !tbaa !25
  store i32 50, ptr %36, align 8, !tbaa !27
  %38 = tail call noalias dereferenceable_or_null(400) ptr @malloc(i64 noundef 400) #10
  %39 = getelementptr inbounds nuw i8, ptr %36, i64 8
  store ptr %38, ptr %39, align 8, !tbaa !28
  %40 = getelementptr inbounds nuw i8, ptr %0, i64 8
  %41 = load ptr, ptr %40, align 8, !tbaa !29
  %42 = getelementptr i8, ptr %41, i64 4
  %.val3239 = load i32, ptr %42, align 4, !tbaa !19
  %43 = icmp sgt i32 %.val3239, 0
  br i1 %43, label %.lr.ph41, label %.critedge.i

.lr.ph41:                                         ; preds = %.critedge
  %44 = getelementptr i8, ptr %3, i64 24
  br label %45

45:                                               ; preds = %.lr.ph41, %45
  %indvars.iv43 = phi i64 [ 0, %.lr.ph41 ], [ %indvars.iv.next44, %45 ]
  %46 = phi ptr [ %41, %.lr.ph41 ], [ %69, %45 ]
  %47 = getelementptr i8, ptr %46, i64 8
  %.val34 = load ptr, ptr %47, align 8, !tbaa !21
  %48 = getelementptr inbounds nuw ptr, ptr %.val34, i64 %indvars.iv43
  %49 = load ptr, ptr %48, align 8, !tbaa !22
  %50 = getelementptr i8, ptr %49, i64 16
  %.val35 = load ptr, ptr %50, align 8, !tbaa !30
  %51 = tail call ptr @Ivy_ObjReal(ptr noundef %.val35) #9
  %52 = ptrtoint ptr %51 to i64
  %53 = and i64 %52, -2
  %54 = inttoptr i64 %53 to ptr
  %55 = tail call fastcc i32 @Ivy_NodeBalance_rec(ptr noundef %3, ptr noundef %54, ptr noundef nonnull %36, i32 noundef 0, i32 noundef %1)
  %56 = trunc i64 %52 to i32
  %57 = xor i32 %55, %56
  %.val36 = load ptr, ptr %44, align 8, !tbaa !31
  %58 = getelementptr i8, ptr %.val36, i64 8
  %.val36.val = load ptr, ptr %58, align 8, !tbaa !21
  %59 = ashr i32 %55, 1
  %60 = sext i32 %59 to i64
  %61 = getelementptr inbounds ptr, ptr %.val36.val, i64 %60
  %62 = load ptr, ptr %61, align 8, !tbaa !22
  %63 = and i32 %57, 1
  %64 = ptrtoint ptr %62 to i64
  %65 = zext nneg i32 %63 to i64
  %66 = xor i64 %64, %65
  %67 = inttoptr i64 %66 to ptr
  %68 = tail call ptr @Ivy_ObjCreatePo(ptr noundef %3, ptr noundef %67) #9
  %indvars.iv.next44 = add nuw nsw i64 %indvars.iv43, 1
  %69 = load ptr, ptr %40, align 8, !tbaa !29
  %70 = getelementptr i8, ptr %69, i64 4
  %.val32 = load i32, ptr %70, align 4, !tbaa !19
  %71 = sext i32 %.val32 to i64
  %72 = icmp slt i64 %indvars.iv.next44, %71
  br i1 %72, label %45, label %.critedge2, !llvm.loop !32

.critedge2:                                       ; preds = %45
  %.val11.i.pre = load i32, ptr %37, align 4, !tbaa !25
  %.pre.pre = load ptr, ptr %39, align 8, !tbaa !21
  %73 = icmp sgt i32 %.val11.i.pre, 0
  br i1 %73, label %.lr.ph.i.preheader, label %.critedge.i

.lr.ph.i.preheader:                               ; preds = %.critedge2
  %74 = zext nneg i32 %.val11.i.pre to i64
  br label %.lr.ph.i

.lr.ph.i:                                         ; preds = %.lr.ph.i.preheader, %81
  %indvars.iv.i = phi i64 [ %indvars.iv.next.i, %81 ], [ 0, %.lr.ph.i.preheader ]
  %75 = getelementptr inbounds nuw ptr, ptr %.pre.pre, i64 %indvars.iv.i
  %76 = load ptr, ptr %75, align 8, !tbaa !22
  %.not.i = icmp eq ptr %76, null
  br i1 %.not.i, label %81, label %77

77:                                               ; preds = %.lr.ph.i
  %78 = getelementptr inbounds nuw i8, ptr %76, i64 8
  %79 = load ptr, ptr %78, align 8, !tbaa !21
  %.not.i.i = icmp eq ptr %79, null
  br i1 %.not.i.i, label %Vec_PtrFree.exit.i, label %80

80:                                               ; preds = %77
  tail call void @free(ptr noundef nonnull %79) #9
  br label %Vec_PtrFree.exit.i

Vec_PtrFree.exit.i:                               ; preds = %80, %77
  tail call void @free(ptr noundef nonnull %76) #9
  br label %81

81:                                               ; preds = %Vec_PtrFree.exit.i, %.lr.ph.i
  %indvars.iv.next.i = add nuw nsw i64 %indvars.iv.i, 1
  %exitcond.not = icmp eq i64 %indvars.iv.next.i, %74
  br i1 %exitcond.not, label %.critedge.i.thread, label %.lr.ph.i, !llvm.loop !33

.critedge.i:                                      ; preds = %.critedge, %.critedge2
  %.pre50 = phi ptr [ %.pre.pre, %.critedge2 ], [ %38, %.critedge ]
  %.not.i9.i = icmp eq ptr %.pre50, null
  br i1 %.not.i9.i, label %Vec_VecFree.exit, label %.critedge.i.thread

.critedge.i.thread:                               ; preds = %81, %.critedge.i
  %.pre5053 = phi ptr [ %.pre50, %.critedge.i ], [ %.pre.pre, %81 ]
  tail call void @free(ptr noundef nonnull %.pre5053) #9
  br label %Vec_VecFree.exit

Vec_VecFree.exit:                                 ; preds = %.critedge.i, %.critedge.i.thread
  tail call void @free(ptr noundef nonnull %36) #9
  %82 = tail call i32 @Ivy_ManCleanup(ptr noundef %3) #9
  %83 = tail call i32 @Ivy_ManCheck(ptr noundef %3) #9
  %.not = icmp eq i32 %83, 0
  br i1 %.not, label %84, label %85

84:                                               ; preds = %Vec_VecFree.exit
  %puts = tail call i32 @puts(ptr nonnull dereferenceable(1) @str)
  br label %85

85:                                               ; preds = %84, %Vec_VecFree.exit
  ret ptr %3
}